target datalayout = "e-m:e-p270:32:32-p271:32:32-p272:64:64-i64:64-i128:128-f80:128-n8:16:32:64-S128"
target triple = "x86_64-pc-linux-gnu"

%struct.DCAXllDecoder = type { ptr, %struct.GetBitContext, i32, i32, i32, i32, i32, i32, i32, i32, i32, i32, i32, i32, [8 x i8], [3 x %struct.DCAXllChSet], ptr, i32, i32, i32, i32, i32, i32, ptr, i32, i32, ptr, i32, i32, i32, [32 x ptr], [8 x i8] }
%struct.GetBitContext = type { ptr, ptr, i32, i32, i32 }
%struct.DCAXllChSet = type { i32, i32, i32, i32, i32, i32, i32, i32, i32, i32, i32, [128 x i32], [16 x i32], [16 x i32], i32, [8 x i32], i32, i32, [2 x %struct.DCAXllBand], i32, [8 x i32], [8 x i32], [8 x i32], [8 x i32], [8 x i32], [4 x i8], [8 x [8 x i32]], [3 x i32], [3 x ptr], [8 x i8] }
%struct.DCAXllBand = type { i32, [8 x i32], [4 x i32], [8 x i32], i32, [8 x i32], [8 x [16 x i32]], i32, i32, [8 x i32], [8 x i32], [8 x ptr], [8 x ptr] }

; Function Attrs: nounwind uwtable
define internal void @clear_pbr(ptr noundef %0) #0 {
  %2 = alloca ptr, align 8
  store ptr %0, ptr %2, align 8, !tbaa !4
  %3 = load ptr, ptr %2, align 8, !tbaa !4
  %4 = getelementptr inbounds nuw %struct.DCAXllDecoder, ptr %3, i32 0, i32 24
  store i32 0, ptr %4, align 8, !tbaa !22
  %5 = load ptr, ptr %2, align 8, !tbaa !4
  %6 = getelementptr inbounds nuw %struct.DCAXllDecoder, ptr %5, i32 0, i32 25
  store i32 0, ptr %6, align 4, !tbaa !26
  ret void
}

; Function Attrs: cold nounwind optsize uwtable
define void @ff_dca_xll_close(ptr noundef %0) #2 {
  %2 = alloca ptr, align 8
  %3 = alloca ptr, align 8
  %4 = alloca i32, align 4
  %5 = alloca i32, align 4
  store ptr %0, ptr %2, align 8, !tbaa !4
  call void @llvm.lifetime.start.p0(i64 8, ptr %3) #10
  call void @llvm.lifetime.start.p0(i64 4, ptr %4) #10
  call void @llvm.lifetime.start.p0(i64 4, ptr %5) #10
  store i32 0, ptr %4, align 4, !tbaa !25
  %6 = load ptr, ptr %2, align 8, !tbaa !4
  %7 = getelementptr inbounds nuw %struct.DCAXllDecoder, ptr %6, i32 0, i32 15
  %8 = getelementptr inbounds [3 x %struct.DCAXllChSet], ptr %7, i64 0, i64 0
  store ptr %8, ptr %3, align 8, !tbaa !55
  br label %9

9:                                                ; preds = %31, %1
  %10 = load i32, ptr %4, align 4, !tbaa !25
  %11 = icmp slt i32 %10, 3
  br i1 %11, label %12, label %36

12:                                               ; preds = %9
  store i32 0, ptr %5, align 4, !tbaa !25
  br label %13

13:                                               ; preds = %27, %12
  %14 = load i32, ptr %5, align 4, !tbaa !25
  %15 = icmp slt i32 %14, 3
  br i1 %15, label %16, label %30

16:                                               ; preds = %13
  %17 = load ptr, ptr %3, align 8, !tbaa !55
  %18 = getelementptr inbounds nuw %struct.DCAXllChSet, ptr %17, i32 0, i32 28
  %19 = load i32, ptr %5, align 4, !tbaa !25
  %20 = sext i32 %19 to i64
  %21 = getelementptr inbounds [3 x ptr], ptr %18, i64 0, i64 %20
  call void @av_freep(ptr noundef %21)
  %22 = load ptr, ptr %3, align 8, !tbaa !55
  %23 = getelementptr inbounds nuw %struct.DCAXllChSet, ptr %22, i32 0, i32 27
  %24 = load i32, ptr %5, align 4, !tbaa !25
  %25 = sext i32 %24 to i64
  %26 = getelementptr inbounds [3 x i32], ptr %23, i64 0, i64 %25
  store i32 0, ptr %26, align 4, !tbaa !25
  br label %27

27:                                               ; preds = %16
  %28 = load i32, ptr %5, align 4, !tbaa !25
  %29 = add nsw i32 %28, 1
  store i32 %29, ptr %5, align 4, !tbaa !25
  br label %13, !llvm.loop !159

30:                                               ; preds = %13
  br label %31

31:                                               ; preds = %30
  %32 = load i32, ptr %4, align 4, !tbaa !25
  %33 = add nsw i32 %32, 1
  store i32 %33, ptr %4, align 4, !tbaa !25
  %34 = load ptr, ptr %3, align 8, !tbaa !55
  %35 = getelementptr inbounds nuw %struct.DCAXllChSet, ptr %34, i32 1
  store ptr %35, ptr %3, align 8, !tbaa !55
  br label %9, !llvm.loop !160

36:                                               ; preds = %9
  %37 = load ptr, ptr %2, align 8, !tbaa !4
  %38 = getelementptr inbounds nuw %struct.DCAXllDecoder, ptr %37, i32 0, i32 16
  call void @av_freep(ptr noundef %38)
  %39 = load ptr, ptr %2, align 8, !tbaa !4
  %40 = getelementptr inbounds nuw %struct.DCAXllDecoder, ptr %39, i32 0, i32 17
  store i32 0, ptr %40, align 8, !tbaa !161
  %41 = load ptr, ptr %2, align 8, !tbaa !4
  %42 = getelementptr inbounds nuw %struct.DCAXllDecoder, ptr %41, i32 0, i32 23
  call void @av_freep(ptr noundef %42)
  %43 = load ptr, ptr %2, align 8, !tbaa !4
  call void @clear_pbr(ptr noundef %43)
  call void @llvm.lifetime.end.p0(i64 4, ptr %5) #10
  call void @llvm.lifetime.end.p0(i64 4, ptr %4) #10
  call void @llvm.lifetime.end.p0(i64 8, ptr %3) #10
  ret void
}