; Function Attrs: cold nounwind optsize uwtable
define void @ff_dca_xll_close(ptr noundef %0) local_unnamed_addr #5 {
  %2 = getelementptr inbounds nuw i8, ptr %0, i64 96
  br label %.preheader

.preheader:                                       ; preds = %1, %8
  %.01317 = phi i32 [ 0, %1 ], [ %9, %8 ]
  %.01416 = phi ptr [ %2, %1 ], [ %10, %8 ]
  %3 = getelementptr inbounds nuw i8, ptr %.01416, i64 2832
  %4 = getelementptr inbounds nuw i8, ptr %.01416, i64 2816
  br label %5

5:                                                ; preds = %.preheader, %5
  %indvars.iv = phi i64 [ 0, %.preheader ], [ %indvars.iv.next, %5 ]
  %6 = getelementptr inbounds nuw [3 x ptr], ptr %3, i64 0, i64 %indvars.iv
  tail call void @av_freep(ptr noundef nonnull %6) #12
  %7 = getelementptr inbounds nuw [3 x i32], ptr %4, i64 0, i64 %indvars.iv
  store i32 0, ptr %7, align 4, !tbaa !74
  %indvars.iv.next = add nuw nsw i64 %indvars.iv, 1
  %exitcond.not = icmp eq i64 %indvars.iv.next, 3
  br i1 %exitcond.not, label %8, label %5, !llvm.loop !146

8:                                                ; preds = %5
  %9 = add nuw nsw i32 %.01317, 1
  %10 = getelementptr inbounds nuw i8, ptr %.01416, i64 2864
  %exitcond19.not = icmp eq i32 %9, 3
  br i1 %exitcond19.not, label %11, label %.preheader, !llvm.loop !147

11:                                               ; preds = %8
  %12 = getelementptr inbounds nuw i8, ptr %0, i64 8688
  tail call void @av_freep(ptr noundef nonnull %12) #12
  %13 = getelementptr inbounds nuw i8, ptr %0, i64 8696
  store i32 0, ptr %13, align 8, !tbaa !148
  %14 = getelementptr inbounds nuw i8, ptr %0, i64 8720
  tail call void @av_freep(ptr noundef nonnull %14) #12
  %15 = getelementptr inbounds nuw i8, ptr %0, i64 8728
  store i32 0, ptr %15, align 8, !tbaa !17
  %16 = getelementptr inbounds nuw i8, ptr %0, i64 8732
  store i32 0, ptr %16, align 4, !tbaa !18
  ret void
}